; Function Attrs: mustprogress nofree norecurse nosync nounwind willreturn memory(read, inaccessiblemem: none) uwtable
define internal noundef zeroext i1 @"_ZNSt17_Function_handlerIFbRKN4llvm13LegalityQueryEEZL18typeIsLegalBoolVecjSt16initializer_listINS0_3LLTEERKNS0_14RISCVSubtargetEE3$_0E9_M_invokeERKSt9_Any_dataS3_"(ptr nocapture noundef nonnull readonly align 8 dereferenceable(16) %0, ptr nocapture noundef nonnull readonly align 8 dereferenceable(40) %1) #5 align 2 {
  %.val = load ptr, ptr %0, align 8
  %3 = getelementptr inbounds nuw i8, ptr %.val, i64 421
  %4 = load i8, ptr %3, align 1
  %5 = trunc i8 %4 to i1
  br i1 %5, label %6, label %"_ZSt10__invoke_rIbRZL18typeIsLegalBoolVecjSt16initializer_listIN4llvm3LLTEERKNS1_14RISCVSubtargetEE3$_0JRKNS1_13LegalityQueryEEENSt9enable_ifIX16is_invocable_r_vIT_T0_DpT1_EESD_E4typeEOSE_DpOSF_.exit"

6:                                                ; preds = %2
  %7 = getelementptr inbounds i8, ptr %1, i64 8
  %.val3 = load ptr, ptr %7, align 8
  %8 = getelementptr inbounds i8, ptr %0, i64 8
  %.val2 = load i32, ptr %8, align 8
  %9 = zext i32 %.val2 to i64
  %10 = getelementptr inbounds %"class.llvm::LLT", ptr %.val3, i64 %9
  %11 = load i64, ptr %10, align 8
  %12 = and i64 %11, 524280
  %.not.i.i.i = icmp eq i64 %12, 8
  br i1 %.not.i.i.i, label %13, label %"_ZSt10__invoke_rIbRZL18typeIsLegalBoolVecjSt16initializer_listIN4llvm3LLTEERKNS1_14RISCVSubtargetEE3$_0JRKNS1_13LegalityQueryEEENSt9enable_ifIX16is_invocable_r_vIT_T0_DpT1_EESD_E4typeEOSE_DpOSF_.exit"

13:                                               ; preds = %6
  %14 = getelementptr inbounds nuw i8, ptr %.val, i64 424
  %15 = load i8, ptr %14, align 8
  %16 = trunc i8 %15 to i1
  br label %"_ZSt10__invoke_rIbRZL18typeIsLegalBoolVecjSt16initializer_listIN4llvm3LLTEERKNS1_14RISCVSubtargetEE3$_0JRKNS1_13LegalityQueryEEENSt9enable_ifIX16is_invocable_r_vIT_T0_DpT1_EESD_E4typeEOSE_DpOSF_.exit"

"_ZSt10__invoke_rIbRZL18typeIsLegalBoolVecjSt16initializer_listIN4llvm3LLTEERKNS1_14RISCVSubtargetEE3$_0JRKNS1_13LegalityQueryEEENSt9enable_ifIX16is_invocable_r_vIT_T0_DpT1_EESD_E4typeEOSE_DpOSF_.exit": ; preds = %2, %6, %13
  %17 = phi i1 [ false, %2 ], [ true, %6 ], [ %16, %13 ]
  ret i1 %17
}